target datalayout = "e-m:e-p270:32:32-p271:32:32-p272:64:64-i64:64-i128:128-f80:128-n8:16:32:64-S128"
target triple = "x86_64-unknown-linux-gnu"

%"struct.std::_Rb_tree_header" = type { %"struct.std::_Rb_tree_node_base", i64 }
%"struct.std::_Rb_tree_node_base" = type { i32, ptr, ptr, ptr }
%"class.std::_Rb_tree.436" = type { %"struct.std::_Rb_tree<grpc_core::EndpointAddressSet, std::pair<const grpc_core::EndpointAddressSet, grpc_core::(anonymous namespace)::WeightedRoundRobin::EndpointWeight *>, std::_Select1st<std::pair<const grpc_core::EndpointAddressSet, grpc_core::(anonymous namespace)::WeightedRoundRobin::EndpointWeight *>>, std::less<grpc_core::EndpointAddressSet>>::_Rb_tree_impl" }
%"struct.std::_Rb_tree<grpc_core::EndpointAddressSet, std::pair<const grpc_core::EndpointAddressSet, grpc_core::(anonymous namespace)::WeightedRoundRobin::EndpointWeight *>, std::_Select1st<std::pair<const grpc_core::EndpointAddressSet, grpc_core::(anonymous namespace)::WeightedRoundRobin::EndpointWeight *>>, std::less<grpc_core::EndpointAddressSet>>::_Rb_tree_impl" = type { %"struct.std::_Rb_tree_key_compare.440", %"struct.std::_Rb_tree_header" }
%"struct.std::_Rb_tree_key_compare.440" = type { %"struct.std::less.441" }
%"struct.std::less.441" = type { i8 }
%"struct.std::_Rb_tree_node.443" = type { %"struct.std::_Rb_tree_node_base", %"struct.__gnu_cxx::__aligned_membuf.444" }
%"struct.__gnu_cxx::__aligned_membuf.444" = type { [56 x i8] }
%"struct.std::pair.445" = type { %"class.grpc_core::EndpointAddressSet", ptr }
%"class.grpc_core::EndpointAddressSet" = type { %"class.std::set.447" }
%"class.std::set.447" = type { %"class.std::_Rb_tree.448" }
%"class.std::_Rb_tree.448" = type { %"struct.std::_Rb_tree<grpc_resolved_address, grpc_resolved_address, std::_Identity<grpc_resolved_address>, grpc_core::ResolvedAddressLessThan>::_Rb_tree_impl" }
%"struct.std::_Rb_tree<grpc_resolved_address, grpc_resolved_address, std::_Identity<grpc_resolved_address>, grpc_core::ResolvedAddressLessThan>::_Rb_tree_impl" = type { %"struct.std::_Rb_tree_key_compare.452", %"struct.std::_Rb_tree_header" }
%"struct.std::_Rb_tree_key_compare.452" = type { %"struct.grpc_core::ResolvedAddressLessThan" }
%"struct.grpc_core::ResolvedAddressLessThan" = type { i8 }
%"struct.std::_Rb_tree<grpc_core::EndpointAddressSet, std::pair<const grpc_core::EndpointAddressSet, grpc_core::(anonymous namespace)::WeightedRoundRobin::EndpointWeight *>, std::_Select1st<std::pair<const grpc_core::EndpointAddressSet, grpc_core::(anonymous namespace)::WeightedRoundRobin::EndpointWeight *>>, std::less<grpc_core::EndpointAddressSet>>::_Auto_node" = type { ptr, ptr }

; Function Attrs: mustprogress nounwind uwtable
define linkonce_odr void @_ZNSt15__new_allocatorISt13_Rb_tree_nodeI21grpc_resolved_addressEED2Ev(ptr noundef nonnull align 1 dereferenceable(1) %this) unnamed_addr #5 comdat align 2 {
entry:
  %this.addr = alloca ptr, align 8
  store ptr %this, ptr %this.addr, align 8
  ret void
}

; Function Attrs: mustprogress nounwind uwtable
define linkonce_odr void @_ZNSaISt13_Rb_tree_nodeI21grpc_resolved_addressEED2Ev(ptr noundef nonnull align 1 dereferenceable(1) %this) unnamed_addr #5 comdat align 2 {
entry:
  %this.addr = alloca ptr, align 8
  store ptr %this, ptr %this.addr, align 8
  %this1 = load ptr, ptr %this.addr, align 8
  call void @_ZNSt15__new_allocatorISt13_Rb_tree_nodeI21grpc_resolved_addressEED2Ev(ptr noundef nonnull align 1 dereferenceable(1) %this1) #3
  ret void
}

; Function Attrs: mustprogress nounwind uwtable
define linkonce_odr noundef ptr @_ZNKSt8_Rb_treeI21grpc_resolved_addressS0_St9_IdentityIS0_EN9grpc_core23ResolvedAddressLessThanESaIS0_EE9_M_mbeginEv(ptr noundef nonnull align 8 dereferenceable(48) %this) #5 comdat align 2 {
entry:
  %this.addr = alloca ptr, align 8
  store ptr %this, ptr %this.addr, align 8
  %this1 = load ptr, ptr %this.addr, align 8
  %_M_impl = getelementptr inbounds %"class.std::_Rb_tree.448", ptr %this1, i32 0, i32 0
  %add.ptr = getelementptr inbounds i8, ptr %_M_impl, i64 8
  %_M_header = getelementptr inbounds %"struct.std::_Rb_tree_header", ptr %add.ptr, i32 0, i32 0
  %_M_parent = getelementptr inbounds %"struct.std::_Rb_tree_node_base", ptr %_M_header, i32 0, i32 1
  %0 = load ptr, ptr %_M_parent, align 8
  ret ptr %0
}

; Function Attrs: mustprogress nounwind uwtable
define linkonce_odr void @_ZNSt8_Rb_treeI21grpc_resolved_addressS0_St9_IdentityIS0_EN9grpc_core23ResolvedAddressLessThanESaIS0_EE13_Rb_tree_implIS4_Lb1EED2Ev(ptr noundef nonnull align 8 dereferenceable(48) %this) unnamed_addr #5 comdat align 2 {
entry:
  %this.addr = alloca ptr, align 8
  store ptr %this, ptr %this.addr, align 8
  %this1 = load ptr, ptr %this.addr, align 8
  call void @_ZNSaISt13_Rb_tree_nodeI21grpc_resolved_addressEED2Ev(ptr noundef nonnull align 1 dereferenceable(1) %this1) #3
  ret void
}

; Function Attrs: mustprogress nounwind uwtable
define linkonce_odr noundef ptr @_ZNSt8_Rb_treeI21grpc_resolved_addressS0_St9_IdentityIS0_EN9grpc_core23ResolvedAddressLessThanESaIS0_EE8_M_beginEv(ptr noundef nonnull align 8 dereferenceable(48) %this) #5 comdat align 2 {
entry:
  %this.addr = alloca ptr, align 8
  store ptr %this, ptr %this.addr, align 8
  %this1 = load ptr, ptr %this.addr, align 8
  %call = call noundef ptr @_ZNKSt8_Rb_treeI21grpc_resolved_addressS0_St9_IdentityIS0_EN9grpc_core23ResolvedAddressLessThanESaIS0_EE9_M_mbeginEv(ptr noundef nonnull align 8 dereferenceable(48) %this1) #3
  ret ptr %call
}

; Function Attrs: mustprogress nounwind uwtable
define linkonce_odr void @_ZNSt8_Rb_treeI21grpc_resolved_addressS0_St9_IdentityIS0_EN9grpc_core23ResolvedAddressLessThanESaIS0_EED2Ev(ptr noundef nonnull align 8 dereferenceable(48) %this) unnamed_addr #5 comdat align 2 personality ptr @__gxx_personality_v0 {
entry:
  %this.addr = alloca ptr, align 8
  store ptr %this, ptr %this.addr, align 8
  %this1 = load ptr, ptr %this.addr, align 8
  %call = call noundef ptr @_ZNSt8_Rb_treeI21grpc_resolved_addressS0_St9_IdentityIS0_EN9grpc_core23ResolvedAddressLessThanESaIS0_EE8_M_beginEv(ptr noundef nonnull align 8 dereferenceable(48) %this1) #3
  invoke void @_ZNSt8_Rb_treeI21grpc_resolved_addressS0_St9_IdentityIS0_EN9grpc_core23ResolvedAddressLessThanESaIS0_EE8_M_eraseEPSt13_Rb_tree_nodeIS0_E(ptr noundef nonnull align 8 dereferenceable(48) %this1, ptr noundef %call)
          to label %invoke.cont unwind label %terminate.lpad

invoke.cont:                                      ; preds = %entry
  %_M_impl = getelementptr inbounds %"class.std::_Rb_tree.448", ptr %this1, i32 0, i32 0
  call void @_ZNSt8_Rb_treeI21grpc_resolved_addressS0_St9_IdentityIS0_EN9grpc_core23ResolvedAddressLessThanESaIS0_EE13_Rb_tree_implIS4_Lb1EED2Ev(ptr noundef nonnull align 8 dereferenceable(48) %_M_impl) #3
  ret void

terminate.lpad:                                   ; preds = %entry
  %0 = landingpad { ptr, i32 }
          catch ptr null
  %1 = extractvalue { ptr, i32 } %0, 0
  call void @__clang_call_terminate(ptr %1) #18
  unreachable
}

; Function Attrs: mustprogress nounwind uwtable
define linkonce_odr void @_ZNSt3setI21grpc_resolved_addressN9grpc_core23ResolvedAddressLessThanESaIS0_EED2Ev(ptr noundef nonnull align 8 dereferenceable(48) %this) unnamed_addr #5 comdat align 2 {
entry:
  %this.addr = alloca ptr, align 8
  store ptr %this, ptr %this.addr, align 8
  %this1 = load ptr, ptr %this.addr, align 8
  %_M_t = getelementptr inbounds %"class.std::set.447", ptr %this1, i32 0, i32 0
  call void @_ZNSt8_Rb_treeI21grpc_resolved_addressS0_St9_IdentityIS0_EN9grpc_core23ResolvedAddressLessThanESaIS0_EED2Ev(ptr noundef nonnull align 8 dereferenceable(48) %_M_t) #3
  ret void
}

; Function Attrs: mustprogress nounwind uwtable
define linkonce_odr void @_ZN9grpc_core18EndpointAddressSetD2Ev(ptr noundef nonnull align 8 dereferenceable(48) %this) unnamed_addr #5 comdat align 2 {
entry:
  %this.addr = alloca ptr, align 8
  store ptr %this, ptr %this.addr, align 8
  %this1 = load ptr, ptr %this.addr, align 8
  %addresses_ = getelementptr inbounds %"class.grpc_core::EndpointAddressSet", ptr %this1, i32 0, i32 0
  call void @_ZNSt3setI21grpc_resolved_addressN9grpc_core23ResolvedAddressLessThanESaIS0_EED2Ev(ptr noundef nonnull align 8 dereferenceable(48) %addresses_) #3
  ret void
}

; Function Attrs: mustprogress nounwind uwtable
define internal void @_ZNSt4pairIKN9grpc_core18EndpointAddressSetEPNS0_12_GLOBAL__N_118WeightedRoundRobin14EndpointWeightEED2Ev(ptr noundef nonnull align 8 dereferenceable(56) %this) unnamed_addr #5 align 2 {
entry:
  %this.addr = alloca ptr, align 8
  store ptr %this, ptr %this.addr, align 8
  %this1 = load ptr, ptr %this.addr, align 8
  %first = getelementptr inbounds %"struct.std::pair.445", ptr %this1, i32 0, i32 0
  call void @_ZN9grpc_core18EndpointAddressSetD2Ev(ptr noundef nonnull align 8 dereferenceable(48) %first) #3
  ret void
}

; Function Attrs: mustprogress nounwind uwtable
define internal noundef ptr @_ZN9__gnu_cxx16__aligned_membufISt4pairIKN9grpc_core18EndpointAddressSetEPNS2_12_GLOBAL__N_118WeightedRoundRobin14EndpointWeightEEE7_M_addrEv(ptr noundef nonnull align 8 dereferenceable(56) %this) #5 align 2 {
entry:
  %this.addr = alloca ptr, align 8
  store ptr %this, ptr %this.addr, align 8
  %this1 = load ptr, ptr %this.addr, align 8
  %_M_storage = getelementptr inbounds %"struct.__gnu_cxx::__aligned_membuf.444", ptr %this1, i32 0, i32 0
  ret ptr %_M_storage
}

; Function Attrs: mustprogress nounwind uwtable
define internal void @_ZNSt15__new_allocatorISt13_Rb_tree_nodeISt4pairIKN9grpc_core18EndpointAddressSetEPNS2_12_GLOBAL__N_118WeightedRoundRobin14EndpointWeightEEEE10deallocateEPSA_m(ptr noundef nonnull align 1 dereferenceable(1) %this, ptr noundef %__p, i64 noundef %__n) #5 align 2 {
entry:
  %this.addr = alloca ptr, align 8
  %__p.addr = alloca ptr, align 8
  %__n.addr = alloca i64, align 8
  store ptr %this, ptr %this.addr, align 8
  store ptr %__p, ptr %__p.addr, align 8
  store i64 %__n, ptr %__n.addr, align 8
  %0 = load ptr, ptr %__p.addr, align 8
  call void @_ZdlPv(ptr noundef %0) #19
  ret void
}

; Function Attrs: mustprogress nounwind uwtable
define internal void @_ZNSt15__new_allocatorISt13_Rb_tree_nodeISt4pairIKN9grpc_core18EndpointAddressSetEPNS2_12_GLOBAL__N_118WeightedRoundRobin14EndpointWeightEEEE7destroyIS9_EEvPT_(ptr noundef nonnull align 1 dereferenceable(1) %this, ptr noundef %__p) #5 align 2 {
entry:
  %this.addr = alloca ptr, align 8
  %__p.addr = alloca ptr, align 8
  store ptr %this, ptr %this.addr, align 8
  store ptr %__p, ptr %__p.addr, align 8
  %0 = load ptr, ptr %__p.addr, align 8
  call void @_ZNSt4pairIKN9grpc_core18EndpointAddressSetEPNS0_12_GLOBAL__N_118WeightedRoundRobin14EndpointWeightEED2Ev(ptr noundef nonnull align 8 dereferenceable(56) %0) #3
  ret void
}

; Function Attrs: mustprogress nounwind uwtable
define internal noundef ptr @_ZN9__gnu_cxx16__aligned_membufISt4pairIKN9grpc_core18EndpointAddressSetEPNS2_12_GLOBAL__N_118WeightedRoundRobin14EndpointWeightEEE6_M_ptrEv(ptr noundef nonnull align 8 dereferenceable(56) %this) #5 align 2 {
entry:
  %this.addr = alloca ptr, align 8
  store ptr %this, ptr %this.addr, align 8
  %this1 = load ptr, ptr %this.addr, align 8
  %call = call noundef ptr @_ZN9__gnu_cxx16__aligned_membufISt4pairIKN9grpc_core18EndpointAddressSetEPNS2_12_GLOBAL__N_118WeightedRoundRobin14EndpointWeightEEE7_M_addrEv(ptr noundef nonnull align 8 dereferenceable(56) %this1) #3
  ret ptr %call
}

; Function Attrs: mustprogress uwtable
define internal void @_ZNSt16allocator_traitsISaISt13_Rb_tree_nodeISt4pairIKN9grpc_core18EndpointAddressSetEPNS2_12_GLOBAL__N_118WeightedRoundRobin14EndpointWeightEEEEE10deallocateERSB_PSA_m(ptr noundef nonnull align 1 dereferenceable(1) %__a, ptr noundef %__p, i64 noundef %__n) #4 align 2 {
entry:
  %__a.addr = alloca ptr, align 8
  %__p.addr = alloca ptr, align 8
  %__n.addr = alloca i64, align 8
  store ptr %__a, ptr %__a.addr, align 8
  store ptr %__p, ptr %__p.addr, align 8
  store i64 %__n, ptr %__n.addr, align 8
  %0 = load ptr, ptr %__a.addr, align 8
  %1 = load ptr, ptr %__p.addr, align 8
  %2 = load i64, ptr %__n.addr, align 8
  call void @_ZNSt15__new_allocatorISt13_Rb_tree_nodeISt4pairIKN9grpc_core18EndpointAddressSetEPNS2_12_GLOBAL__N_118WeightedRoundRobin14EndpointWeightEEEE10deallocateEPSA_m(ptr noundef nonnull align 1 dereferenceable(1) %0, ptr noundef %1, i64 noundef %2)
  ret void
}

; Function Attrs: mustprogress nounwind uwtable
define internal void @_ZNSt16allocator_traitsISaISt13_Rb_tree_nodeISt4pairIKN9grpc_core18EndpointAddressSetEPNS2_12_GLOBAL__N_118WeightedRoundRobin14EndpointWeightEEEEE7destroyIS9_EEvRSB_PT_(ptr noundef nonnull align 1 dereferenceable(1) %__a, ptr noundef %__p) #5 align 2 {
entry:
  %__a.addr = alloca ptr, align 8
  %__p.addr = alloca ptr, align 8
  store ptr %__a, ptr %__a.addr, align 8
  store ptr %__p, ptr %__p.addr, align 8
  %0 = load ptr, ptr %__a.addr, align 8
  %1 = load ptr, ptr %__p.addr, align 8
  call void @_ZNSt15__new_allocatorISt13_Rb_tree_nodeISt4pairIKN9grpc_core18EndpointAddressSetEPNS2_12_GLOBAL__N_118WeightedRoundRobin14EndpointWeightEEEE7destroyIS9_EEvPT_(ptr noundef nonnull align 1 dereferenceable(1) %0, ptr noundef %1) #3
  ret void
}

; Function Attrs: mustprogress nounwind uwtable
define internal noundef ptr @_ZNSt13_Rb_tree_nodeISt4pairIKN9grpc_core18EndpointAddressSetEPNS1_12_GLOBAL__N_118WeightedRoundRobin14EndpointWeightEEE9_M_valptrEv(ptr noundef nonnull align 8 dereferenceable(88) %this) #5 align 2 {
entry:
  %this.addr = alloca ptr, align 8
  store ptr %this, ptr %this.addr, align 8
  %this1 = load ptr, ptr %this.addr, align 8
  %_M_storage = getelementptr inbounds %"struct.std::_Rb_tree_node.443", ptr %this1, i32 0, i32 1
  %call = call noundef ptr @_ZN9__gnu_cxx16__aligned_membufISt4pairIKN9grpc_core18EndpointAddressSetEPNS2_12_GLOBAL__N_118WeightedRoundRobin14EndpointWeightEEE6_M_ptrEv(ptr noundef nonnull align 8 dereferenceable(56) %_M_storage) #3
  ret ptr %call
}

; Function Attrs: mustprogress nounwind uwtable
define internal noundef nonnull align 1 dereferenceable(1) ptr @_ZNSt8_Rb_treeIN9grpc_core18EndpointAddressSetESt4pairIKS1_PNS0_12_GLOBAL__N_118WeightedRoundRobin14EndpointWeightEESt10_Select1stIS8_ESt4lessIS1_ESaIS8_EE21_M_get_Node_allocatorEv(ptr noundef nonnull align 8 dereferenceable(48) %this) #5 align 2 {
entry:
  %this.addr = alloca ptr, align 8
  store ptr %this, ptr %this.addr, align 8
  %this1 = load ptr, ptr %this.addr, align 8
  %_M_impl = getelementptr inbounds %"class.std::_Rb_tree.436", ptr %this1, i32 0, i32 0
  ret ptr %_M_impl
}

; Function Attrs: mustprogress nounwind uwtable
define internal void @_ZNSt8_Rb_treeIN9grpc_core18EndpointAddressSetESt4pairIKS1_PNS0_12_GLOBAL__N_118WeightedRoundRobin14EndpointWeightEESt10_Select1stIS8_ESt4lessIS1_ESaIS8_EE11_M_put_nodeEPSt13_Rb_tree_nodeIS8_E(ptr noundef nonnull align 8 dereferenceable(48) %this, ptr noundef %__p) #5 align 2 personality ptr @__gxx_personality_v0 {
entry:
  %this.addr = alloca ptr, align 8
  %__p.addr = alloca ptr, align 8
  store ptr %this, ptr %this.addr, align 8
  store ptr %__p, ptr %__p.addr, align 8
  %this1 = load ptr, ptr %this.addr, align 8
  %call = call noundef nonnull align 1 dereferenceable(1) ptr @_ZNSt8_Rb_treeIN9grpc_core18EndpointAddressSetESt4pairIKS1_PNS0_12_GLOBAL__N_118WeightedRoundRobin14EndpointWeightEESt10_Select1stIS8_ESt4lessIS1_ESaIS8_EE21_M_get_Node_allocatorEv(ptr noundef nonnull align 8 dereferenceable(48) %this1) #3
  %0 = load ptr, ptr %__p.addr, align 8
  invoke void @_ZNSt16allocator_traitsISaISt13_Rb_tree_nodeISt4pairIKN9grpc_core18EndpointAddressSetEPNS2_12_GLOBAL__N_118WeightedRoundRobin14EndpointWeightEEEEE10deallocateERSB_PSA_m(ptr noundef nonnull align 1 dereferenceable(1) %call, ptr noundef %0, i64 noundef 1)
          to label %invoke.cont unwind label %terminate.lpad

invoke.cont:                                      ; preds = %entry
  ret void

terminate.lpad:                                   ; preds = %entry
  %1 = landingpad { ptr, i32 }
          catch ptr null
  %2 = extractvalue { ptr, i32 } %1, 0
  call void @__clang_call_terminate(ptr %2) #18
  unreachable
}

; Function Attrs: mustprogress nounwind uwtable
define internal void @_ZNSt8_Rb_treeIN9grpc_core18EndpointAddressSetESt4pairIKS1_PNS0_12_GLOBAL__N_118WeightedRoundRobin14EndpointWeightEESt10_Select1stIS8_ESt4lessIS1_ESaIS8_EE15_M_destroy_nodeEPSt13_Rb_tree_nodeIS8_E(ptr noundef nonnull align 8 dereferenceable(48) %this, ptr noundef %__p) #5 align 2 personality ptr @__gxx_personality_v0 {
entry:
  %this.addr = alloca ptr, align 8
  %__p.addr = alloca ptr, align 8
  store ptr %this, ptr %this.addr, align 8
  store ptr %__p, ptr %__p.addr, align 8
  %this1 = load ptr, ptr %this.addr, align 8
  %call = call noundef nonnull align 1 dereferenceable(1) ptr @_ZNSt8_Rb_treeIN9grpc_core18EndpointAddressSetESt4pairIKS1_PNS0_12_GLOBAL__N_118WeightedRoundRobin14EndpointWeightEESt10_Select1stIS8_ESt4lessIS1_ESaIS8_EE21_M_get_Node_allocatorEv(ptr noundef nonnull align 8 dereferenceable(48) %this1) #3
  %0 = load ptr, ptr %__p.addr, align 8
  %call2 = invoke noundef ptr @_ZNSt13_Rb_tree_nodeISt4pairIKN9grpc_core18EndpointAddressSetEPNS1_12_GLOBAL__N_118WeightedRoundRobin14EndpointWeightEEE9_M_valptrEv(ptr noundef nonnull align 8 dereferenceable(88) %0)
          to label %invoke.cont unwind label %terminate.lpad

invoke.cont:                                      ; preds = %entry
  call void @_ZNSt16allocator_traitsISaISt13_Rb_tree_nodeISt4pairIKN9grpc_core18EndpointAddressSetEPNS2_12_GLOBAL__N_118WeightedRoundRobin14EndpointWeightEEEEE7destroyIS9_EEvRSB_PT_(ptr noundef nonnull align 1 dereferenceable(1) %call, ptr noundef %call2) #3
  ret void

terminate.lpad:                                   ; preds = %entry
  %1 = landingpad { ptr, i32 }
          catch ptr null
  %2 = extractvalue { ptr, i32 } %1, 0
  call void @__clang_call_terminate(ptr %2) #18
  unreachable
}

; Function Attrs: mustprogress nounwind uwtable
define internal void @_ZNSt8_Rb_treeIN9grpc_core18EndpointAddressSetESt4pairIKS1_PNS0_12_GLOBAL__N_118WeightedRoundRobin14EndpointWeightEESt10_Select1stIS8_ESt4lessIS1_ESaIS8_EE12_M_drop_nodeEPSt13_Rb_tree_nodeIS8_E(ptr noundef nonnull align 8 dereferenceable(48) %this, ptr noundef %__p) #5 align 2 {
entry:
  %this.addr = alloca ptr, align 8
  %__p.addr = alloca ptr, align 8
  store ptr %this, ptr %this.addr, align 8
  store ptr %__p, ptr %__p.addr, align 8
  %this1 = load ptr, ptr %this.addr, align 8
  %0 = load ptr, ptr %__p.addr, align 8
  call void @_ZNSt8_Rb_treeIN9grpc_core18EndpointAddressSetESt4pairIKS1_PNS0_12_GLOBAL__N_118WeightedRoundRobin14EndpointWeightEESt10_Select1stIS8_ESt4lessIS1_ESaIS8_EE15_M_destroy_nodeEPSt13_Rb_tree_nodeIS8_E(ptr noundef nonnull align 8 dereferenceable(48) %this1, ptr noundef %0) #3
  %1 = load ptr, ptr %__p.addr, align 8
  call void @_ZNSt8_Rb_treeIN9grpc_core18EndpointAddressSetESt4pairIKS1_PNS0_12_GLOBAL__N_118WeightedRoundRobin14EndpointWeightEESt10_Select1stIS8_ESt4lessIS1_ESaIS8_EE11_M_put_nodeEPSt13_Rb_tree_nodeIS8_E(ptr noundef nonnull align 8 dereferenceable(48) %this1, ptr noundef %1) #3
  ret void
}

; Function Attrs: mustprogress nounwind uwtable
define internal void @_ZNSt8_Rb_treeIN9grpc_core18EndpointAddressSetESt4pairIKS1_PNS0_12_GLOBAL__N_118WeightedRoundRobin14EndpointWeightEESt10_Select1stIS8_ESt4lessIS1_ESaIS8_EE10_Auto_nodeD2Ev(ptr noundef nonnull align 8 dereferenceable(16) %this) unnamed_addr #5 align 2 {
entry:
  %this.addr = alloca ptr, align 8
  store ptr %this, ptr %this.addr, align 8
  %this1 = load ptr, ptr %this.addr, align 8
  %_M_node = getelementptr inbounds %"struct.std::_Rb_tree<grpc_core::EndpointAddressSet, std::pair<const grpc_core::EndpointAddressSet, grpc_core::(anonymous namespace)::WeightedRoundRobin::EndpointWeight *>, std::_Select1st<std::pair<const grpc_core::EndpointAddressSet, grpc_core::(anonymous namespace)::WeightedRoundRobin::EndpointWeight *>>, std::less<grpc_core::EndpointAddressSet>>::_Auto_node", ptr %this1, i32 0, i32 1
  %0 = load ptr, ptr %_M_node, align 8
  %tobool = icmp ne ptr %0, null
  br i1 %tobool, label %if.then, label %if.end

if.then:                                          ; preds = %entry
  %_M_t = getelementptr inbounds %"struct.std::_Rb_tree<grpc_core::EndpointAddressSet, std::pair<const grpc_core::EndpointAddressSet, grpc_core::(anonymous namespace)::WeightedRoundRobin::EndpointWeight *>, std::_Select1st<std::pair<const grpc_core::EndpointAddressSet, grpc_core::(anonymous namespace)::WeightedRoundRobin::EndpointWeight *>>, std::less<grpc_core::EndpointAddressSet>>::_Auto_node", ptr %this1, i32 0, i32 0
  %1 = load ptr, ptr %_M_t, align 8
  %_M_node2 = getelementptr inbounds %"struct.std::_Rb_tree<grpc_core::EndpointAddressSet, std::pair<const grpc_core::EndpointAddressSet, grpc_core::(anonymous namespace)::WeightedRoundRobin::EndpointWeight *>, std::_Select1st<std::pair<const grpc_core::EndpointAddressSet, grpc_core::(anonymous namespace)::WeightedRoundRobin::EndpointWeight *>>, std::less<grpc_core::EndpointAddressSet>>::_Auto_node", ptr %this1, i32 0, i32 1
  %2 = load ptr, ptr %_M_node2, align 8
  call void @_ZNSt8_Rb_treeIN9grpc_core18EndpointAddressSetESt4pairIKS1_PNS0_12_GLOBAL__N_118WeightedRoundRobin14EndpointWeightEESt10_Select1stIS8_ESt4lessIS1_ESaIS8_EE12_M_drop_nodeEPSt13_Rb_tree_nodeIS8_E(ptr noundef nonnull align 8 dereferenceable(48) %1, ptr noundef %2) #3
  br label %if.end

if.end:                                           ; preds = %if.then, %entry
  ret void
}