; Function Attrs: mustprogress nounwind uwtable
define internal fastcc void @_ZNSt8_Rb_treeIN9grpc_core18EndpointAddressSetESt4pairIKS1_PNS0_12_GLOBAL__N_118WeightedRoundRobin14EndpointWeightEESt10_Select1stIS8_ESt4lessIS1_ESaIS8_EE10_Auto_nodeD2Ev(ptr %this.8.val) unnamed_addr #13 align 2 personality ptr @__gxx_personality_v0 {
entry:
  %tobool.not = icmp eq ptr %this.8.val, null
  br i1 %tobool.not, label %if.end, label %if.then

if.then:                                          ; preds = %entry
  %_M_storage.i.i.i = getelementptr inbounds i8, ptr %this.8.val, i64 32
  %_M_parent.i.i.i.i.i.i.i.i.i.i = getelementptr inbounds i8, ptr %this.8.val, i64 48
  %0 = load ptr, ptr %_M_parent.i.i.i.i.i.i.i.i.i.i, align 8
  invoke void @_ZNSt8_Rb_treeI21grpc_resolved_addressS0_St9_IdentityIS0_EN9grpc_core23ResolvedAddressLessThanESaIS0_EE8_M_eraseEPSt13_Rb_tree_nodeIS0_E(ptr noundef nonnull align 8 dereferenceable(48) %_M_storage.i.i.i, ptr noundef %0)
          to label %_ZNSt8_Rb_treeIN9grpc_core18EndpointAddressSetESt4pairIKS1_PNS0_12_GLOBAL__N_118WeightedRoundRobin14EndpointWeightEESt10_Select1stIS8_ESt4lessIS1_ESaIS8_EE12_M_drop_nodeEPSt13_Rb_tree_nodeIS8_E.exit unwind label %terminate.lpad.i.i.i.i.i.i.i.i

terminate.lpad.i.i.i.i.i.i.i.i:                   ; preds = %if.then
  %1 = landingpad { ptr, i32 }
          catch ptr null
  %2 = extractvalue { ptr, i32 } %1, 0
  tail call void @__clang_call_terminate(ptr %2) #31
  unreachable

_ZNSt8_Rb_treeIN9grpc_core18EndpointAddressSetESt4pairIKS1_PNS0_12_GLOBAL__N_118WeightedRoundRobin14EndpointWeightEESt10_Select1stIS8_ESt4lessIS1_ESaIS8_EE12_M_drop_nodeEPSt13_Rb_tree_nodeIS8_E.exit: ; preds = %if.then
  tail call void @_ZdlPv(ptr noundef nonnull %this.8.val) #32
  br label %if.end

if.end:                                           ; preds = %_ZNSt8_Rb_treeIN9grpc_core18EndpointAddressSetESt4pairIKS1_PNS0_12_GLOBAL__N_118WeightedRoundRobin14EndpointWeightEESt10_Select1stIS8_ESt4lessIS1_ESaIS8_EE12_M_drop_nodeEPSt13_Rb_tree_nodeIS8_E.exit, %entry
  ret void
}